; Function Attrs: mustprogress nofree norecurse nosync nounwind sspstrong willreturn memory(argmem: readwrite) uwtable
define dso_local void @aesenc_SB_SR_MC_AK_genrev(ptr noundef writeonly captures(none) initializes((0, 16)) %r, ptr noundef readonly captures(none) %st, ptr noundef readonly captures(none) %rk) local_unnamed_addr #0 {
entry:
  %arrayidx.i = getelementptr i8, ptr %st, i64 15
  %0 = load i8, ptr %arrayidx.i, align 1
  %idxprom9.i = zext i8 %0 to i64
  %arrayidx10.i = getelementptr [256 x i32], ptr @AES_Te0, i64 0, i64 %idxprom9.i
  %1 = load i32, ptr %arrayidx10.i, align 4
  %arrayidx13.i = getelementptr i8, ptr %st, i64 10
  %2 = load i8, ptr %arrayidx13.i, align 1
  %idxprom14.i = zext i8 %2 to i64
  %arrayidx15.i = getelementptr [256 x i32], ptr @AES_Te1, i64 0, i64 %idxprom14.i
  %3 = load i32, ptr %arrayidx15.i, align 4
  %xor16.i = xor i32 %3, %1
  %arrayidx19.i = getelementptr i8, ptr %st, i64 5
  %4 = load i8, ptr %arrayidx19.i, align 1
  %idxprom20.i = zext i8 %4 to i64
  %arrayidx21.i = getelementptr [256 x i32], ptr @AES_Te2, i64 0, i64 %idxprom20.i
  %5 = load i32, ptr %arrayidx21.i, align 4
  %xor22.i = xor i32 %xor16.i, %5
  %6 = load i8, ptr %st, align 1
  %idxprom26.i = zext i8 %6 to i64
  %arrayidx27.i = getelementptr [256 x i32], ptr @AES_Te3, i64 0, i64 %idxprom26.i
  %7 = load i32, ptr %arrayidx27.i, align 4
  %xor28.i = xor i32 %xor22.i, %7
  %arrayidx31.i = getelementptr i8, ptr %st, i64 11
  %8 = load i8, ptr %arrayidx31.i, align 1
  %idxprom32.i = zext i8 %8 to i64
  %arrayidx33.i = getelementptr [256 x i32], ptr @AES_Te0, i64 0, i64 %idxprom32.i
  %9 = load i32, ptr %arrayidx33.i, align 4
  %arrayidx36.i = getelementptr i8, ptr %st, i64 6
  %10 = load i8, ptr %arrayidx36.i, align 1
  %idxprom37.i = zext i8 %10 to i64
  %arrayidx38.i = getelementptr [256 x i32], ptr @AES_Te1, i64 0, i64 %idxprom37.i
  %11 = load i32, ptr %arrayidx38.i, align 4
  %xor39.i = xor i32 %11, %9
  %arrayidx42.i = getelementptr i8, ptr %st, i64 1
  %12 = load i8, ptr %arrayidx42.i, align 1
  %idxprom43.i = zext i8 %12 to i64
  %arrayidx44.i = getelementptr [256 x i32], ptr @AES_Te2, i64 0, i64 %idxprom43.i
  %13 = load i32, ptr %arrayidx44.i, align 4
  %xor45.i = xor i32 %xor39.i, %13
  %arrayidx48.i = getelementptr i8, ptr %st, i64 12
  %14 = load i8, ptr %arrayidx48.i, align 1
  %idxprom49.i = zext i8 %14 to i64
  %arrayidx50.i = getelementptr [256 x i32], ptr @AES_Te3, i64 0, i64 %idxprom49.i
  %15 = load i32, ptr %arrayidx50.i, align 4
  %xor51.i = xor i32 %xor45.i, %15
  %arrayidx54.i = getelementptr i8, ptr %st, i64 7
  %16 = load i8, ptr %arrayidx54.i, align 1
  %idxprom55.i = zext i8 %16 to i64
  %arrayidx56.i = getelementptr [256 x i32], ptr @AES_Te0, i64 0, i64 %idxprom55.i
  %17 = load i32, ptr %arrayidx56.i, align 4
  %arrayidx59.i = getelementptr i8, ptr %st, i64 2
  %18 = load i8, ptr %arrayidx59.i, align 1
  %idxprom60.i = zext i8 %18 to i64
  %arrayidx61.i = getelementptr [256 x i32], ptr @AES_Te1, i64 0, i64 %idxprom60.i
  %19 = load i32, ptr %arrayidx61.i, align 4
  %xor62.i = xor i32 %19, %17
  %arrayidx65.i = getelementptr i8, ptr %st, i64 13
  %20 = load i8, ptr %arrayidx65.i, align 1
  %idxprom66.i = zext i8 %20 to i64
  %arrayidx67.i = getelementptr [256 x i32], ptr @AES_Te2, i64 0, i64 %idxprom66.i
  %21 = load i32, ptr %arrayidx67.i, align 4
  %xor68.i = xor i32 %xor62.i, %21
  %arrayidx71.i = getelementptr i8, ptr %st, i64 8
  %22 = load i8, ptr %arrayidx71.i, align 1
  %idxprom72.i = zext i8 %22 to i64
  %arrayidx73.i = getelementptr [256 x i32], ptr @AES_Te3, i64 0, i64 %idxprom72.i
  %23 = load i32, ptr %arrayidx73.i, align 4
  %xor74.i = xor i32 %xor68.i, %23
  %arrayidx77.i = getelementptr i8, ptr %st, i64 3
  %24 = load i8, ptr %arrayidx77.i, align 1
  %idxprom78.i = zext i8 %24 to i64
  %arrayidx79.i = getelementptr [256 x i32], ptr @AES_Te0, i64 0, i64 %idxprom78.i
  %25 = load i32, ptr %arrayidx79.i, align 4
  %arrayidx82.i = getelementptr i8, ptr %st, i64 14
  %26 = load i8, ptr %arrayidx82.i, align 1
  %idxprom83.i = zext i8 %26 to i64
  %arrayidx84.i = getelementptr [256 x i32], ptr @AES_Te1, i64 0, i64 %idxprom83.i
  %27 = load i32, ptr %arrayidx84.i, align 4
  %xor85.i = xor i32 %27, %25
  %arrayidx88.i = getelementptr i8, ptr %st, i64 9
  %28 = load i8, ptr %arrayidx88.i, align 1
  %idxprom89.i = zext i8 %28 to i64
  %arrayidx90.i = getelementptr [256 x i32], ptr @AES_Te2, i64 0, i64 %idxprom89.i
  %29 = load i32, ptr %arrayidx90.i, align 4
  %xor91.i = xor i32 %xor85.i, %29
  %arrayidx94.i = getelementptr i8, ptr %st, i64 4
  %30 = load i8, ptr %arrayidx94.i, align 1
  %idxprom95.i = zext i8 %30 to i64
  %arrayidx96.i = getelementptr [256 x i32], ptr @AES_Te3, i64 0, i64 %idxprom95.i
  %31 = load i32, ptr %arrayidx96.i, align 4
  %xor97.i = xor i32 %xor91.i, %31
  %arrayidx101.i = getelementptr i8, ptr %rk, i64 12
  %32 = load i32, ptr %arrayidx101.i, align 4
  %xor102.i = xor i32 %xor28.i, %32
  %arrayidx105.i = getelementptr i8, ptr %r, i64 12
  store i32 %xor102.i, ptr %arrayidx105.i, align 4
  %arrayidx108.i = getelementptr i8, ptr %rk, i64 8
  %33 = load i32, ptr %arrayidx108.i, align 4
  %xor109.i = xor i32 %xor51.i, %33
  %arrayidx112.i = getelementptr i8, ptr %r, i64 8
  store i32 %xor109.i, ptr %arrayidx112.i, align 4
  %arrayidx115.i = getelementptr i8, ptr %rk, i64 4
  %34 = load i32, ptr %arrayidx115.i, align 4
  %xor116.i = xor i32 %xor74.i, %34
  %arrayidx119.i = getelementptr i8, ptr %r, i64 4
  store i32 %xor116.i, ptr %arrayidx119.i, align 4
  %35 = load i32, ptr %rk, align 4
  %xor123.i = xor i32 %xor97.i, %35
  store i32 %xor123.i, ptr %r, align 4
  ret void
}